target datalayout = "e-m:e-p270:32:32-p271:32:32-p272:64:64-i64:64-i128:128-f80:128-n8:16:32:64-S128"
target triple = "x86_64-pc-linux-gnu"

; Function Attrs: nounwind uwtable
define void @ff_acelp_lp_decode(ptr noundef %0, ptr noundef %1, ptr noundef %2, ptr noundef %3, i32 noundef %4) #0 {
  %6 = alloca ptr, align 8
  %7 = alloca ptr, align 8
  %8 = alloca ptr, align 8
  %9 = alloca ptr, align 8
  %10 = alloca i32, align 4
  %11 = alloca [20 x i16], align 16
  %12 = alloca i32, align 4
  store ptr %0, ptr %6, align 8, !tbaa !4
  store ptr %1, ptr %7, align 8, !tbaa !4
  store ptr %2, ptr %8, align 8, !tbaa !4
  store ptr %3, ptr %9, align 8, !tbaa !4
  store i32 %4, ptr %10, align 4, !tbaa !9
  call void @llvm.lifetime.start.p0(i64 40, ptr %11) #3
  call void @llvm.lifetime.start.p0(i64 4, ptr %12) #3
  store i32 0, ptr %12, align 4, !tbaa !9
  br label %13

13:                                               ; preds = %36, %5
  %14 = load i32, ptr %12, align 4, !tbaa !9
  %15 = load i32, ptr %10, align 4, !tbaa !9
  %16 = icmp slt i32 %14, %15
  br i1 %16, label %17, label %39

17:                                               ; preds = %13
  %18 = load ptr, ptr %8, align 8, !tbaa !4
  %19 = load i32, ptr %12, align 4, !tbaa !9
  %20 = sext i32 %19 to i64
  %21 = getelementptr inbounds i16, ptr %18, i64 %20
  %22 = load i16, ptr %21, align 2, !tbaa !11
  %23 = sext i16 %22 to i32
  %24 = load ptr, ptr %9, align 8, !tbaa !4
  %25 = load i32, ptr %12, align 4, !tbaa !9
  %26 = sext i32 %25 to i64
  %27 = getelementptr inbounds i16, ptr %24, i64 %26
  %28 = load i16, ptr %27, align 2, !tbaa !11
  %29 = sext i16 %28 to i32
  %30 = add nsw i32 %23, %29
  %31 = ashr i32 %30, 1
  %32 = trunc i32 %31 to i16
  %33 = load i32, ptr %12, align 4, !tbaa !9
  %34 = sext i32 %33 to i64
  %35 = getelementptr inbounds [20 x i16], ptr %11, i64 0, i64 %34
  store i16 %32, ptr %35, align 2, !tbaa !11
  br label %36

36:                                               ; preds = %17
  %37 = load i32, ptr %12, align 4, !tbaa !9
  %38 = add nsw i32 %37, 1
  store i32 %38, ptr %12, align 4, !tbaa !9
  br label %13, !llvm.loop !32

39:                                               ; preds = %13
  %40 = load ptr, ptr %6, align 8, !tbaa !4
  %41 = getelementptr inbounds [20 x i16], ptr %11, i64 0, i64 0
  %42 = load i32, ptr %10, align 4, !tbaa !9
  %43 = ashr i32 %42, 1
  call void @acelp_lsp2lpc(ptr noundef %40, ptr noundef %41, i32 noundef %43)
  %44 = load ptr, ptr %7, align 8, !tbaa !4
  %45 = load ptr, ptr %8, align 8, !tbaa !4
  %46 = load i32, ptr %10, align 4, !tbaa !9
  %47 = ashr i32 %46, 1
  call void @acelp_lsp2lpc(ptr noundef %44, ptr noundef %45, i32 noundef %47)
  call void @llvm.lifetime.end.p0(i64 4, ptr %12) #3
  call void @llvm.lifetime.end.p0(i64 40, ptr %11) #3
  ret void
}