; Function Attrs: nofree norecurse nosync nounwind memory(argmem: readwrite) uwtable
define void @ff_acelp_lp_decode(ptr noundef writeonly captures(none) %0, ptr noundef writeonly captures(none) %1, ptr noundef readonly captures(none) %2, ptr noundef readonly captures(none) %3, i32 noundef %4) local_unnamed_addr #0 {
  %6 = alloca [20 x i16], align 16
  call void @llvm.lifetime.start.p0(i64 40, ptr nonnull %6) #4
  %7 = icmp sgt i32 %4, 0
  br i1 %7, label %.lr.ph.preheader, label %._crit_edge

.lr.ph.preheader:                                 ; preds = %5
  %wide.trip.count = zext nneg i32 %4 to i64
  br label %.lr.ph

.lr.ph:                                           ; preds = %.lr.ph.preheader, %.lr.ph
  %indvars.iv = phi i64 [ 0, %.lr.ph.preheader ], [ %indvars.iv.next, %.lr.ph ]
  %8 = getelementptr inbounds nuw i16, ptr %2, i64 %indvars.iv
  %9 = load i16, ptr %8, align 2, !tbaa !4
  %10 = sext i16 %9 to i32
  %11 = getelementptr inbounds nuw i16, ptr %3, i64 %indvars.iv
  %12 = load i16, ptr %11, align 2, !tbaa !4
  %13 = sext i16 %12 to i32
  %14 = add nsw i32 %13, %10
  %15 = lshr i32 %14, 1
  %16 = trunc i32 %15 to i16
  %17 = getelementptr inbounds nuw [20 x i16], ptr %6, i64 0, i64 %indvars.iv
  store i16 %16, ptr %17, align 2, !tbaa !4
  %indvars.iv.next = add nuw nsw i64 %indvars.iv, 1
  %exitcond.not = icmp eq i64 %indvars.iv.next, %wide.trip.count
  br i1 %exitcond.not, label %._crit_edge, label %.lr.ph, !llvm.loop !22

._crit_edge:                                      ; preds = %.lr.ph, %5
  %18 = ashr i32 %4, 1
  call fastcc void @acelp_lsp2lpc(ptr noundef %0, ptr noundef nonnull %6, i32 noundef %18)
  tail call fastcc void @acelp_lsp2lpc(ptr noundef %1, ptr noundef %2, i32 noundef %18)
  call void @llvm.lifetime.end.p0(i64 40, ptr nonnull %6) #4
  ret void
}